; Function Attrs: mustprogress uwtable
define hidden void @_ZN10func_entry10deallocateER11ast_managerj(ptr noundef nonnull align 8 dereferenceable(16) %this, ptr noundef nonnull align 8 dereferenceable(976) %m, i32 noundef %arity) local_unnamed_addr #3 align 2 {
entry:
  %cmp13.not = icmp eq i32 %arity, 0
  br i1 %cmp13.not, label %for.end, label %for.body.lr.ph

for.body.lr.ph:                                   ; preds = %entry
  %m_args = getelementptr inbounds i8, ptr %this, i64 16
  %wide.trip.count = zext i32 %arity to i64
  br label %for.body

for.body:                                         ; preds = %for.body.lr.ph, %_ZN11ast_manager7dec_refEP3ast.exit
  %indvars.iv = phi i64 [ 0, %for.body.lr.ph ], [ %indvars.iv.next, %_ZN11ast_manager7dec_refEP3ast.exit ]
  %arrayidx = getelementptr inbounds [0 x ptr], ptr %m_args, i64 0, i64 %indvars.iv
  %0 = load ptr, ptr %arrayidx, align 8
  %tobool.not.i = icmp eq ptr %0, null
  br i1 %tobool.not.i, label %_ZN11ast_manager7dec_refEP3ast.exit, label %if.then.i

if.then.i:                                        ; preds = %for.body
  %m_ref_count.i.i = getelementptr inbounds i8, ptr %0, i64 8
  %1 = load i32, ptr %m_ref_count.i.i, align 4
  %dec.i.i = add i32 %1, -1
  store i32 %dec.i.i, ptr %m_ref_count.i.i, align 4
  %cmp.i = icmp eq i32 %dec.i.i, 0
  br i1 %cmp.i, label %if.then2.i, label %_ZN11ast_manager7dec_refEP3ast.exit

if.then2.i:                                       ; preds = %if.then.i
  tail call void @_ZN11ast_manager11delete_nodeEP3ast(ptr noundef nonnull align 8 dereferenceable(976) %m, ptr noundef nonnull %0)
  br label %_ZN11ast_manager7dec_refEP3ast.exit

_ZN11ast_manager7dec_refEP3ast.exit:              ; preds = %for.body, %if.then.i, %if.then2.i
  %indvars.iv.next = add nuw nsw i64 %indvars.iv, 1
  %exitcond.not = icmp eq i64 %indvars.iv.next, %wide.trip.count
  br i1 %exitcond.not, label %for.end, label %for.body, !llvm.loop !7

for.end:                                          ; preds = %_ZN11ast_manager7dec_refEP3ast.exit, %entry
  %m_result = getelementptr inbounds i8, ptr %this, i64 8
  %2 = load ptr, ptr %m_result, align 8
  %tobool.not.i6 = icmp eq ptr %2, null
  br i1 %tobool.not.i6, label %_ZN11ast_manager7dec_refEP3ast.exit12, label %if.then.i7

if.then.i7:                                       ; preds = %for.end
  %m_ref_count.i.i8 = getelementptr inbounds i8, ptr %2, i64 8
  %3 = load i32, ptr %m_ref_count.i.i8, align 4
  %dec.i.i9 = add i32 %3, -1
  store i32 %dec.i.i9, ptr %m_ref_count.i.i8, align 4
  %cmp.i10 = icmp eq i32 %dec.i.i9, 0
  br i1 %cmp.i10, label %if.then2.i11, label %_ZN11ast_manager7dec_refEP3ast.exit12

if.then2.i11:                                     ; preds = %if.then.i7
  tail call void @_ZN11ast_manager11delete_nodeEP3ast(ptr noundef nonnull align 8 dereferenceable(976) %m, ptr noundef nonnull %2)
  br label %_ZN11ast_manager7dec_refEP3ast.exit12

_ZN11ast_manager7dec_refEP3ast.exit12:            ; preds = %for.end, %if.then.i7, %if.then2.i11
  %m_alloc.i = getelementptr inbounds i8, ptr %m, i64 40
  %mul.i = shl i32 %arity, 3
  %add.i = add i32 %mul.i, 16
  %conv = zext i32 %add.i to i64
  tail call void @_ZN22small_object_allocator10deallocateEmPv(ptr noundef nonnull align 8 dereferenceable(520) %m_alloc.i, i64 noundef %conv, ptr noundef nonnull %this)
  ret void
}